ccopy_reg
_reconstructor
p1
(ccloudinit.sources.DataSourceEc2
DataSourceEc2
p2
c__builtin__
object
p3
NtRp4
(dp5
S'paths'
p6
g1
(ccloudinit.helpers
Paths
p7
g3
NtRp8
(dp9
S'lookups'
p10
(dp11
S'cloud_config'
p12
S'cloud-config.txt'
p13
sS'userdata'
p14
S'user-data.txt.i'
p15
sS'vendordata'
p16
S'vendor-data.txt.i'
p17
sS'userdata_raw'
p18
S'user-data.txt'
p19
sS'boothooks'
p20
g20
sS'scripts'
p21
g21
sS'sem'
p22
g22
sS'data'
p23
g23
sS'vendor_scripts'
p24
S'scripts/vendor'
p25
sS'handlers'
p26
g26
sS'obj_pkl'
p27
S'obj.pkl'
p28
sS'vendordata_raw'
p29
S'vendor-data.txt'
p30
sS'vendor_cloud_config'
p31
S'vendor-cloud-config.txt'
p32
ssS'template_tpl'
p33
S'/etc/cloud/templates/%s.tmpl'
p34
sS'cfgs'
p35
(dp36
S'cloud_dir'
p37
S'/var/lib/cloud/'
p38
sS'templates_dir'
p39
S'/etc/cloud/templates/'
p40
sS'upstart_dir'
p41
S'/etc/init/'
p42
ssS'cloud_dir'
p43
g38
sS'datasource'
p44
NsS'upstart_conf_d'
p45
g42
sS'boot_finished'
p46
S'/var/lib/cloud/instance/boot-finished'
p47
sS'instance_link'
p48
S'/var/lib/cloud/instance'
p49
sS'seed_dir'
p50
S'/var/lib/cloud/seed'
p51
sbsS'metadata_address'
p52
S'http://169.254.169.254'
p53
sS'sys_cfg'
p54
(dp55
S'output'
p56
(dp57
S'all'
p58
S'| tee -a /var/log/cloud-init-output.log'
p59
ssS'users'
p60
(lp61
S'default'
p62
asS'def_log_file'
p63
S'/var/log/cloud-init.log'
p64
sS'cloud_final_modules'
p65
(lp66
S'rightscale_userdata'
p67
aS'scripts-vendor'
p68
aS'scripts-per-once'
p69
aS'scripts-per-boot'
p70
aS'scripts-per-instance'
p71
aS'scripts-user'
p72
aS'ssh-authkey-fingerprints'
p73
aS'keys-to-console'
p74
aS'phone-home'
p75
aS'final-message'
p76
aS'power-state-change'
p77
asS'disable_root'
p78
I01
sS'syslog_fix_perms'
p79
S'syslog:adm'
p80
sS'log_cfgs'
p81
(lp82
(lp83
S'[loggers]\nkeys=root,cloudinit\n\n[handlers]\nkeys=consoleHandler,cloudLogHandler\n\n[formatters]\nkeys=simpleFormatter,arg0Formatter\n\n[logger_root]\nlevel=DEBUG\nhandlers=consoleHandler,cloudLogHandler\n\n[logger_cloudinit]\nlevel=DEBUG\nqualname=cloudinit\nhandlers=\npropagate=1\n\n[handler_consoleHandler]\nclass=StreamHandler\nlevel=WARNING\nformatter=arg0Formatter\nargs=(sys.stderr,)\n\n[formatter_arg0Formatter]\nformat=%(asctime)s - %(filename)s[%(levelname)s]: %(message)s\n\n[formatter_simpleFormatter]\nformat=[CLOUDINIT] %(filename)s[%(levelname)s]: %(message)s\n'
p84
aS'[handler_cloudLogHandler]\nclass=handlers.SysLogHandler\nlevel=DEBUG\nformatter=simpleFormatter\nargs=("/dev/log", handlers.SysLogHandler.LOG_USER)\n'
p85
aa(lp86
g84
aS"[handler_cloudLogHandler]\nclass=FileHandler\nlevel=DEBUG\nformatter=arg0Formatter\nargs=('/var/log/cloud-init.log',)\n"
p87
aasS'cloud_init_modules'
p88
(lp89
S'migrator'
p90
aS'seed_random'
p91
aS'bootcmd'
p92
aS'write-files'
p93
aS'growpart'
p94
aS'resizefs'
p95
aS'set_hostname'
p96
aS'update_hostname'
p97
aS'update_etc_hosts'
p98
aS'ca-certs'
p99
aS'rsyslog'
p100
aS'users-groups'
p101
aS'ssh'
p102
asS'preserve_hostname'
p103
I00
sS'_log'
p104
(lp105
g84
ag87
ag85
asS'datasource_list'
p106
(lp107
S'NoCloud'
p108
aS'ConfigDrive'
p109
aS'OpenNebula'
p110
aS'Azure'
p111
aS'AltCloud'
p112
aS'OVF'
p113
aS'MAAS'
p114
aS'GCE'
p115
aS'OpenStack'
p116
aS'CloudSigma'
p117
aS'Ec2'
p118
aS'CloudStack'
p119
aS'SmartOS'
p120
aS'None'
p121
asS'vendor_data'
p122
(dp123
S'prefix'
p124
(lp125
sS'enabled'
p126
I01
ssS'cloud_config_modules'
p127
(lp128
S'emit_upstart'
p129
aS'disk_setup'
p130
aS'mounts'
p131
aS'ssh-import-id'
p132
aS'locale'
p133
aS'set-passwords'
p134
aS'grub-dpkg'
p135
aS'apt-pipelining'
p136
aS'apt-configure'
p137
aS'package-update-upgrade-install'
p138
aS'landscape'
p139
aS'timezone'
p140
aS'puppet'
p141
aS'chef'
p142
aS'salt-minion'
p143
aS'mcollective'
p144
aS'disable-ec2-metadata'
p145
aS'runcmd'
p146
aS'byobu'
p147
assg14
Nsg16
NsS'api_ver'
p148
S'2009-04-04'
p149
sg18
S''
sg29
NsS'ud_proc'
p150
g1
(ccloudinit.user_data
UserDataProcessor
p151
g3
NtRp152
(dp153
g6
g8
sS'ssl_details'
p154
(dp155
sbsg50
S'/var/lib/cloud/seed/ec2'
p156
sS'ds_cfg'
p157
(dp158
sS'distro'
p159
g1
(ccloudinit.distros.ubuntu
Distro
p160
g3
NtRp161
(dp162
S'osfamily'
p163
S'debian'
p164
sS'_paths'
p165
g8
sS'name'
p166
S'ubuntu'
p167
sS'_runner'
p168
g1
(ccloudinit.helpers
Runners
p169
g3
NtRp170
(dp171
g6
g8
sS'sems'
p172
(dp173
sbsS'_cfg'
p174
(dp175
S'paths'
p176
(dp177
g37
g38
sg39
g40
sg41
g42
ssS'default_user'
p178
(dp179
S'shell'
p180
S'/bin/bash'
p181
sS'name'
p182
S'ubuntu'
p183
sS'sudo'
p184
(lp185
S'ALL=(ALL) NOPASSWD:ALL'
p186
asS'lock_passwd'
p187
I01
sS'gecos'
p188
S'Ubuntu'
p189
sS'groups'
p190
(lp191
S'adm'
p192
aS'audio'
p193
aS'cdrom'
p194
aS'dialout'
p195
aS'dip'
p196
aS'floppy'
p197
aS'netdev'
p198
aS'plugdev'
p199
aS'sudo'
p200
aS'video'
p201
assS'package_mirrors'
p202
(lp203
(dp204
S'arches'
p205
(lp206
S'i386'
p207
aS'amd64'
p208
asS'failsafe'
p209
(dp210
S'security'
p211
S'http://security.ubuntu.com/ubuntu'
p212
sS'primary'
p213
S'http://archive.ubuntu.com/ubuntu'
p214
ssS'search'
p215
(dp216
S'security'
p217
(lp218
sS'primary'
p219
(lp220
S'http://%(ec2_region)s.ec2.archive.ubuntu.com/ubuntu/'
p221
aS'http://%(availability_zone)s.clouds.archive.ubuntu.com/ubuntu/'
p222
aS'http://%(region)s.clouds.archive.ubuntu.com/ubuntu/'
p223
assa(dp224
S'arches'
p225
(lp226
S'armhf'
p227
aS'armel'
p228
aS'default'
p229
asS'failsafe'
p230
(dp231
S'security'
p232
S'http://ports.ubuntu.com/ubuntu-ports'
p233
sS'primary'
p234
S'http://ports.ubuntu.com/ubuntu-ports'
p235
ssasS'ssh_svcname'
p236
S'ssh'
p237
ssbsS'metadata'
p238
(dp239
S'profile'
p240
S'default-hvm'
p241
sS'local-ipv4'
p242
S'172.31.23.55'
p243
sS'reservation-id'
p244
S'r-0f3d0ed5a8895c784'
p245
sS'local-hostname'
p246
S'ip-172-31-23-55.us-west-2.compute.internal'
p247
sS'placement'
p248
(dp249
S'availability-zone'
p250
S'us-west-2b'
p251
ssS'ami-launch-index'
p252
S'0'
sS'public-hostname'
p253
S'ec2-54-187-179-88.us-west-2.compute.amazonaws.com'
p254
sS'public-keys'
p255
(dp256
S'servereditor_rohan'
p257
(lp258
S'ssh-rsa AAAAB3NzaC1yc2EAAAADAQABAAABAQChsO7vpKEnr/w8JP+agkIOhPvN5peLBITK2hkC17E3lrpKIgh69C1CuT9uVUnsE9ceqcLDoUcvEifYbStlF2c8xiIJxBHDtCIchmbeZb/ompT4ncYEQ/xwyQJ6xBO9PaCDUNrs7eiZex8Z9KHh4xoFmh88y9qmO7ncO7M7AhrsubVcOb8oD87OjMGESgCBG66/ri/cx7zIE2Qm9KQbnfSHPwPt8C5+ndOCpr64xMH5c8rMaV/7C+k1pcMxpXYaev1l9yRfA7FJF2FHidEnzSVZJQXK4lxzpERHsN2CjtyYb3BvXDHaOqzdtKNsLJen1P69qXx5MM92y5AjLiUrQP3x servereditor_rohan'
p259
assS'ami-id'
p260
S'ami-d732f0b7'
p261
sS'instance-action'
p262
S'none'
p263
sS'public-ipv4'
p264
S'54.187.179.88'
p265
sS'block-device-mapping'
p266
(dp267
S'ami'
p268
S'/dev/sda1'
p269
sS'root'
p270
S'/dev/sda1'
p271
ssS'ami-manifest-path'
p272
S'(unknown)'
p273
sS'security-groups'
p274
S'servereditor'
p275
sS'instance-type'
p276
S't2.micro'
p277
sS'hostname'
p278
S'ip-172-31-23-55.us-west-2.compute.internal'
p279
sS'instance-id'
p280
S'i-016d168b98949600e'
p281
ssb.